target datalayout = "e-m:e-p270:32:32-p271:32:32-p272:64:64-i64:64-i128:128-f80:128-n8:16:32:64-S128"
target triple = "x86_64-pc-linux-gnu"

%struct.dtoa_context = type { [8 x ptr], ptr }
%struct.Bigint = type { ptr, i32, i32, i32, i32, [1 x i32] }

; Function Attrs: nounwind uwtable
define internal ptr @Balloc(ptr noundef %0, i32 noundef %1) #0 {
  %3 = alloca ptr, align 8
  %4 = alloca i32, align 4
  %5 = alloca i32, align 4
  %6 = alloca ptr, align 8
  store ptr %0, ptr %3, align 8, !tbaa !4
  store i32 %1, ptr %4, align 4, !tbaa !9
  call void @llvm.lifetime.start.p0(i64 4, ptr %5) #6
  call void @llvm.lifetime.start.p0(i64 8, ptr %6) #6
  %7 = load i32, ptr %4, align 4, !tbaa !9
  %8 = icmp sle i32 %7, 7
  br i1 %8, label %9, label %26

9:                                                ; preds = %2
  %10 = load ptr, ptr %3, align 8, !tbaa !4
  %11 = getelementptr inbounds nuw %struct.dtoa_context, ptr %10, i32 0, i32 0
  %12 = load i32, ptr %4, align 4, !tbaa !9
  %13 = sext i32 %12 to i64
  %14 = getelementptr inbounds [8 x ptr], ptr %11, i64 0, i64 %13
  %15 = load ptr, ptr %14, align 8, !tbaa !11
  store ptr %15, ptr %6, align 8, !tbaa !11
  %16 = icmp ne ptr %15, null
  br i1 %16, label %17, label %26

17:                                               ; preds = %9
  %18 = load ptr, ptr %6, align 8, !tbaa !11
  %19 = getelementptr inbounds nuw %struct.Bigint, ptr %18, i32 0, i32 0
  %20 = load ptr, ptr %19, align 8, !tbaa !17
  %21 = load ptr, ptr %3, align 8, !tbaa !4
  %22 = getelementptr inbounds nuw %struct.dtoa_context, ptr %21, i32 0, i32 0
  %23 = load i32, ptr %4, align 4, !tbaa !9
  %24 = sext i32 %23 to i64
  %25 = getelementptr inbounds [8 x ptr], ptr %22, i64 0, i64 %24
  store ptr %20, ptr %25, align 8, !tbaa !11
  br label %41

26:                                               ; preds = %9, %2
  %27 = load i32, ptr %4, align 4, !tbaa !9
  %28 = shl i32 1, %27
  store i32 %28, ptr %5, align 4, !tbaa !9
  %29 = load i32, ptr %5, align 4, !tbaa !9
  %30 = sub nsw i32 %29, 1
  %31 = sext i32 %30 to i64
  %32 = mul i64 %31, 4
  %33 = add i64 32, %32
  %34 = call ptr @jv_mem_alloc(i64 noundef %33)
  store ptr %34, ptr %6, align 8, !tbaa !11
  %35 = load i32, ptr %4, align 4, !tbaa !9
  %36 = load ptr, ptr %6, align 8, !tbaa !11
  %37 = getelementptr inbounds nuw %struct.Bigint, ptr %36, i32 0, i32 1
  store i32 %35, ptr %37, align 8, !tbaa !22
  %38 = load i32, ptr %5, align 4, !tbaa !9
  %39 = load ptr, ptr %6, align 8, !tbaa !11
  %40 = getelementptr inbounds nuw %struct.Bigint, ptr %39, i32 0, i32 2
  store i32 %38, ptr %40, align 4, !tbaa !58
  br label %41

41:                                               ; preds = %26, %17
  %42 = load ptr, ptr %6, align 8, !tbaa !11
  %43 = getelementptr inbounds nuw %struct.Bigint, ptr %42, i32 0, i32 4
  store i32 0, ptr %43, align 4, !tbaa !51
  %44 = load ptr, ptr %6, align 8, !tbaa !11
  %45 = getelementptr inbounds nuw %struct.Bigint, ptr %44, i32 0, i32 3
  store i32 0, ptr %45, align 8, !tbaa !52
  %46 = load ptr, ptr %6, align 8, !tbaa !11
  call void @llvm.lifetime.end.p0(i64 8, ptr %6) #6
  call void @llvm.lifetime.end.p0(i64 4, ptr %5) #6
  ret ptr %46
}

; Function Attrs: nounwind uwtable
define internal i32 @cmp(ptr noundef %0, ptr noundef %1, ptr noundef %2) #0 {
  %4 = alloca i32, align 4
  %5 = alloca ptr, align 8
  %6 = alloca ptr, align 8
  %7 = alloca ptr, align 8
  %8 = alloca ptr, align 8
  %9 = alloca ptr, align 8
  %10 = alloca ptr, align 8
  %11 = alloca ptr, align 8
  %12 = alloca i32, align 4
  %13 = alloca i32, align 4
  %14 = alloca i32, align 4
  store ptr %0, ptr %5, align 8, !tbaa !4
  store ptr %1, ptr %6, align 8, !tbaa !11
  store ptr %2, ptr %7, align 8, !tbaa !11
  call void @llvm.lifetime.start.p0(i64 8, ptr %8) #6
  call void @llvm.lifetime.start.p0(i64 8, ptr %9) #6
  call void @llvm.lifetime.start.p0(i64 8, ptr %10) #6
  call void @llvm.lifetime.start.p0(i64 8, ptr %11) #6
  call void @llvm.lifetime.start.p0(i64 4, ptr %12) #6
  call void @llvm.lifetime.start.p0(i64 4, ptr %13) #6
  %15 = load ptr, ptr %6, align 8, !tbaa !11
  %16 = getelementptr inbounds nuw %struct.Bigint, ptr %15, i32 0, i32 4
  %17 = load i32, ptr %16, align 4, !tbaa !51
  store i32 %17, ptr %12, align 4, !tbaa !9
  %18 = load ptr, ptr %7, align 8, !tbaa !11
  %19 = getelementptr inbounds nuw %struct.Bigint, ptr %18, i32 0, i32 4
  %20 = load i32, ptr %19, align 4, !tbaa !51
  store i32 %20, ptr %13, align 4, !tbaa !9
  %21 = load i32, ptr %13, align 4, !tbaa !9
  %22 = load i32, ptr %12, align 4, !tbaa !9
  %23 = sub nsw i32 %22, %21
  store i32 %23, ptr %12, align 4, !tbaa !9
  %24 = icmp ne i32 %23, 0
  br i1 %24, label %25, label %27

25:                                               ; preds = %3
  %26 = load i32, ptr %12, align 4, !tbaa !9
  store i32 %26, ptr %4, align 4
  store i32 1, ptr %14, align 4
  br label %64

27:                                               ; preds = %3
  %28 = load ptr, ptr %6, align 8, !tbaa !11
  %29 = getelementptr inbounds nuw %struct.Bigint, ptr %28, i32 0, i32 5
  %30 = getelementptr inbounds [1 x i32], ptr %29, i64 0, i64 0
  store ptr %30, ptr %9, align 8, !tbaa !60
  %31 = load ptr, ptr %9, align 8, !tbaa !60
  %32 = load i32, ptr %13, align 4, !tbaa !9
  %33 = sext i32 %32 to i64
  %34 = getelementptr inbounds i32, ptr %31, i64 %33
  store ptr %34, ptr %8, align 8, !tbaa !60
  %35 = load ptr, ptr %7, align 8, !tbaa !11
  %36 = getelementptr inbounds nuw %struct.Bigint, ptr %35, i32 0, i32 5
  %37 = getelementptr inbounds [1 x i32], ptr %36, i64 0, i64 0
  store ptr %37, ptr %11, align 8, !tbaa !60
  %38 = load ptr, ptr %11, align 8, !tbaa !60
  %39 = load i32, ptr %13, align 4, !tbaa !9
  %40 = sext i32 %39 to i64
  %41 = getelementptr inbounds i32, ptr %38, i64 %40
  store ptr %41, ptr %10, align 8, !tbaa !60
  br label %42

42:                                               ; preds = %62, %27
  %43 = load ptr, ptr %8, align 8, !tbaa !60
  %44 = getelementptr inbounds i32, ptr %43, i32 -1
  store ptr %44, ptr %8, align 8, !tbaa !60
  %45 = load i32, ptr %44, align 4, !tbaa !9
  %46 = load ptr, ptr %10, align 8, !tbaa !60
  %47 = getelementptr inbounds i32, ptr %46, i32 -1
  store ptr %47, ptr %10, align 8, !tbaa !60
  %48 = load i32, ptr %47, align 4, !tbaa !9
  %49 = icmp ne i32 %45, %48
  br i1 %49, label %50, label %57

50:                                               ; preds = %42
  %51 = load ptr, ptr %8, align 8, !tbaa !60
  %52 = load i32, ptr %51, align 4, !tbaa !9
  %53 = load ptr, ptr %10, align 8, !tbaa !60
  %54 = load i32, ptr %53, align 4, !tbaa !9
  %55 = icmp ult i32 %52, %54
  %56 = select i1 %55, i32 -1, i32 1
  store i32 %56, ptr %4, align 4
  store i32 1, ptr %14, align 4
  br label %64

57:                                               ; preds = %42
  %58 = load ptr, ptr %8, align 8, !tbaa !60
  %59 = load ptr, ptr %9, align 8, !tbaa !60
  %60 = icmp ule ptr %58, %59
  br i1 %60, label %61, label %62

61:                                               ; preds = %57
  br label %63

62:                                               ; preds = %57
  br label %42

63:                                               ; preds = %61
  store i32 0, ptr %4, align 4
  store i32 1, ptr %14, align 4
  br label %64

64:                                               ; preds = %63, %50, %25
  call void @llvm.lifetime.end.p0(i64 4, ptr %13) #6
  call void @llvm.lifetime.end.p0(i64 4, ptr %12) #6
  call void @llvm.lifetime.end.p0(i64 8, ptr %11) #6
  call void @llvm.lifetime.end.p0(i64 8, ptr %10) #6
  call void @llvm.lifetime.end.p0(i64 8, ptr %9) #6
  call void @llvm.lifetime.end.p0(i64 8, ptr %8) #6
  %65 = load i32, ptr %4, align 4
  ret i32 %65
}

; Function Attrs: nounwind uwtable
define internal ptr @diff(ptr noundef %0, ptr noundef %1, ptr noundef %2) #0 {
  %4 = alloca ptr, align 8
  %5 = alloca ptr, align 8
  %6 = alloca ptr, align 8
  %7 = alloca ptr, align 8
  %8 = alloca ptr, align 8
  %9 = alloca i32, align 4
  %10 = alloca i32, align 4
  %11 = alloca i32, align 4
  %12 = alloca ptr, align 8
  %13 = alloca ptr, align 8
  %14 = alloca ptr, align 8
  %15 = alloca ptr, align 8
  %16 = alloca ptr, align 8
  %17 = alloca i64, align 8
  %18 = alloca i64, align 8
  %19 = alloca i32, align 4
  store ptr %0, ptr %5, align 8, !tbaa !4
  store ptr %1, ptr %6, align 8, !tbaa !11
  store ptr %2, ptr %7, align 8, !tbaa !11
  call void @llvm.lifetime.start.p0(i64 8, ptr %8) #6
  call void @llvm.lifetime.start.p0(i64 4, ptr %9) #6
  call void @llvm.lifetime.start.p0(i64 4, ptr %10) #6
  call void @llvm.lifetime.start.p0(i64 4, ptr %11) #6
  call void @llvm.lifetime.start.p0(i64 8, ptr %12) #6
  call void @llvm.lifetime.start.p0(i64 8, ptr %13) #6
  call void @llvm.lifetime.start.p0(i64 8, ptr %14) #6
  call void @llvm.lifetime.start.p0(i64 8, ptr %15) #6
  call void @llvm.lifetime.start.p0(i64 8, ptr %16) #6
  call void @llvm.lifetime.start.p0(i64 8, ptr %17) #6
  call void @llvm.lifetime.start.p0(i64 8, ptr %18) #6
  %20 = load ptr, ptr %5, align 8, !tbaa !4
  %21 = load ptr, ptr %6, align 8, !tbaa !11
  %22 = load ptr, ptr %7, align 8, !tbaa !11
  %23 = call i32 @cmp(ptr noundef %20, ptr noundef %21, ptr noundef %22)
  store i32 %23, ptr %9, align 4, !tbaa !9
  %24 = load i32, ptr %9, align 4, !tbaa !9
  %25 = icmp ne i32 %24, 0
  br i1 %25, label %35, label %26

26:                                               ; preds = %3
  %27 = load ptr, ptr %5, align 8, !tbaa !4
  %28 = call ptr @Balloc(ptr noundef %27, i32 noundef 0)
  store ptr %28, ptr %8, align 8, !tbaa !11
  %29 = load ptr, ptr %8, align 8, !tbaa !11
  %30 = getelementptr inbounds nuw %struct.Bigint, ptr %29, i32 0, i32 4
  store i32 1, ptr %30, align 4, !tbaa !51
  %31 = load ptr, ptr %8, align 8, !tbaa !11
  %32 = getelementptr inbounds nuw %struct.Bigint, ptr %31, i32 0, i32 5
  %33 = getelementptr inbounds [1 x i32], ptr %32, i64 0, i64 0
  store i32 0, ptr %33, align 8, !tbaa !9
  %34 = load ptr, ptr %8, align 8, !tbaa !11
  store ptr %34, ptr %4, align 8
  store i32 1, ptr %19, align 4
  br label %134

35:                                               ; preds = %3
  %36 = load i32, ptr %9, align 4, !tbaa !9
  %37 = icmp slt i32 %36, 0
  br i1 %37, label %38, label %42

38:                                               ; preds = %35
  %39 = load ptr, ptr %6, align 8, !tbaa !11
  store ptr %39, ptr %8, align 8, !tbaa !11
  %40 = load ptr, ptr %7, align 8, !tbaa !11
  store ptr %40, ptr %6, align 8, !tbaa !11
  %41 = load ptr, ptr %8, align 8, !tbaa !11
  store ptr %41, ptr %7, align 8, !tbaa !11
  store i32 1, ptr %9, align 4, !tbaa !9
  br label %43

42:                                               ; preds = %35
  store i32 0, ptr %9, align 4, !tbaa !9
  br label %43

43:                                               ; preds = %42, %38
  %44 = load ptr, ptr %5, align 8, !tbaa !4
  %45 = load ptr, ptr %6, align 8, !tbaa !11
  %46 = getelementptr inbounds nuw %struct.Bigint, ptr %45, i32 0, i32 1
  %47 = load i32, ptr %46, align 8, !tbaa !22
  %48 = call ptr @Balloc(ptr noundef %44, i32 noundef %47)
  store ptr %48, ptr %8, align 8, !tbaa !11
  %49 = load i32, ptr %9, align 4, !tbaa !9
  %50 = load ptr, ptr %8, align 8, !tbaa !11
  %51 = getelementptr inbounds nuw %struct.Bigint, ptr %50, i32 0, i32 3
  store i32 %49, ptr %51, align 8, !tbaa !52
  %52 = load ptr, ptr %6, align 8, !tbaa !11
  %53 = getelementptr inbounds nuw %struct.Bigint, ptr %52, i32 0, i32 4
  %54 = load i32, ptr %53, align 4, !tbaa !51
  store i32 %54, ptr %10, align 4, !tbaa !9
  %55 = load ptr, ptr %6, align 8, !tbaa !11
  %56 = getelementptr inbounds nuw %struct.Bigint, ptr %55, i32 0, i32 5
  %57 = getelementptr inbounds [1 x i32], ptr %56, i64 0, i64 0
  store ptr %57, ptr %12, align 8, !tbaa !60
  %58 = load ptr, ptr %12, align 8, !tbaa !60
  %59 = load i32, ptr %10, align 4, !tbaa !9
  %60 = sext i32 %59 to i64
  %61 = getelementptr inbounds i32, ptr %58, i64 %60
  store ptr %61, ptr %13, align 8, !tbaa !60
  %62 = load ptr, ptr %7, align 8, !tbaa !11
  %63 = getelementptr inbounds nuw %struct.Bigint, ptr %62, i32 0, i32 4
  %64 = load i32, ptr %63, align 4, !tbaa !51
  store i32 %64, ptr %11, align 4, !tbaa !9
  %65 = load ptr, ptr %7, align 8, !tbaa !11
  %66 = getelementptr inbounds nuw %struct.Bigint, ptr %65, i32 0, i32 5
  %67 = getelementptr inbounds [1 x i32], ptr %66, i64 0, i64 0
  store ptr %67, ptr %14, align 8, !tbaa !60
  %68 = load ptr, ptr %14, align 8, !tbaa !60
  %69 = load i32, ptr %11, align 4, !tbaa !9
  %70 = sext i32 %69 to i64
  %71 = getelementptr inbounds i32, ptr %68, i64 %70
  store ptr %71, ptr %15, align 8, !tbaa !60
  %72 = load ptr, ptr %8, align 8, !tbaa !11
  %73 = getelementptr inbounds nuw %struct.Bigint, ptr %72, i32 0, i32 5
  %74 = getelementptr inbounds [1 x i32], ptr %73, i64 0, i64 0
  store ptr %74, ptr %16, align 8, !tbaa !60
  store i64 0, ptr %17, align 8, !tbaa !63
  br label %75

75:                                               ; preds = %95, %43
  %76 = load ptr, ptr %12, align 8, !tbaa !60
  %77 = getelementptr inbounds nuw i32, ptr %76, i32 1
  store ptr %77, ptr %12, align 8, !tbaa !60
  %78 = load i32, ptr %76, align 4, !tbaa !9
  %79 = zext i32 %78 to i64
  %80 = load ptr, ptr %14, align 8, !tbaa !60
  %81 = getelementptr inbounds nuw i32, ptr %80, i32 1
  store ptr %81, ptr %14, align 8, !tbaa !60
  %82 = load i32, ptr %80, align 4, !tbaa !9
  %83 = zext i32 %82 to i64
  %84 = sub i64 %79, %83
  %85 = load i64, ptr %17, align 8, !tbaa !63
  %86 = sub i64 %84, %85
  store i64 %86, ptr %18, align 8, !tbaa !63
  %87 = load i64, ptr %18, align 8, !tbaa !63
  %88 = lshr i64 %87, 32
  %89 = and i64 %88, 1
  store i64 %89, ptr %17, align 8, !tbaa !63
  %90 = load i64, ptr %18, align 8, !tbaa !63
  %91 = and i64 %90, 4294967295
  %92 = trunc i64 %91 to i32
  %93 = load ptr, ptr %16, align 8, !tbaa !60
  %94 = getelementptr inbounds nuw i32, ptr %93, i32 1
  store ptr %94, ptr %16, align 8, !tbaa !60
  store i32 %92, ptr %93, align 4, !tbaa !9
  br label %95

95:                                               ; preds = %75
  %96 = load ptr, ptr %14, align 8, !tbaa !60
  %97 = load ptr, ptr %15, align 8, !tbaa !60
  %98 = icmp ult ptr %96, %97
  br i1 %98, label %75, label %99, !llvm.loop !72

99:                                               ; preds = %95
  br label %100

100:                                              ; preds = %104, %99
  %101 = load ptr, ptr %12, align 8, !tbaa !60
  %102 = load ptr, ptr %13, align 8, !tbaa !60
  %103 = icmp ult ptr %101, %102
  br i1 %103, label %104, label %119

104:                                              ; preds = %100
  %105 = load ptr, ptr %12, align 8, !tbaa !60
  %106 = getelementptr inbounds nuw i32, ptr %105, i32 1
  store ptr %106, ptr %12, align 8, !tbaa !60
  %107 = load i32, ptr %105, align 4, !tbaa !9
  %108 = zext i32 %107 to i64
  %109 = load i64, ptr %17, align 8, !tbaa !63
  %110 = sub i64 %108, %109
  store i64 %110, ptr %18, align 8, !tbaa !63
  %111 = load i64, ptr %18, align 8, !tbaa !63
  %112 = lshr i64 %111, 32
  %113 = and i64 %112, 1
  store i64 %113, ptr %17, align 8, !tbaa !63
  %114 = load i64, ptr %18, align 8, !tbaa !63
  %115 = and i64 %114, 4294967295
  %116 = trunc i64 %115 to i32
  %117 = load ptr, ptr %16, align 8, !tbaa !60
  %118 = getelementptr inbounds nuw i32, ptr %117, i32 1
  store ptr %118, ptr %16, align 8, !tbaa !60
  store i32 %116, ptr %117, align 4, !tbaa !9
  br label %100, !llvm.loop !73

119:                                              ; preds = %100
  br label %120

120:                                              ; preds = %126, %119
  %121 = load ptr, ptr %16, align 8, !tbaa !60
  %122 = getelementptr inbounds i32, ptr %121, i32 -1
  store ptr %122, ptr %16, align 8, !tbaa !60
  %123 = load i32, ptr %122, align 4, !tbaa !9
  %124 = icmp ne i32 %123, 0
  %125 = xor i1 %124, true
  br i1 %125, label %126, label %129

126:                                              ; preds = %120
  %127 = load i32, ptr %10, align 4, !tbaa !9
  %128 = add nsw i32 %127, -1
  store i32 %128, ptr %10, align 4, !tbaa !9
  br label %120, !llvm.loop !74

129:                                              ; preds = %120
  %130 = load i32, ptr %10, align 4, !tbaa !9
  %131 = load ptr, ptr %8, align 8, !tbaa !11
  %132 = getelementptr inbounds nuw %struct.Bigint, ptr %131, i32 0, i32 4
  store i32 %130, ptr %132, align 4, !tbaa !51
  %133 = load ptr, ptr %8, align 8, !tbaa !11
  store ptr %133, ptr %4, align 8
  store i32 1, ptr %19, align 4
  br label %134

134:                                              ; preds = %129, %26
  call void @llvm.lifetime.end.p0(i64 8, ptr %18) #6
  call void @llvm.lifetime.end.p0(i64 8, ptr %17) #6
  call void @llvm.lifetime.end.p0(i64 8, ptr %16) #6
  call void @llvm.lifetime.end.p0(i64 8, ptr %15) #6
  call void @llvm.lifetime.end.p0(i64 8, ptr %14) #6
  call void @llvm.lifetime.end.p0(i64 8, ptr %13) #6
  call void @llvm.lifetime.end.p0(i64 8, ptr %12) #6
  call void @llvm.lifetime.end.p0(i64 4, ptr %11) #6
  call void @llvm.lifetime.end.p0(i64 4, ptr %10) #6
  call void @llvm.lifetime.end.p0(i64 4, ptr %9) #6
  call void @llvm.lifetime.end.p0(i64 8, ptr %8) #6
  %135 = load ptr, ptr %4, align 8
  ret ptr %135
}