; Function Attrs: nounwind uwtable
define internal fastcc ptr @diff(ptr noundef captures(none) %0, ptr noundef readonly captures(address) %1, ptr noundef readonly captures(address) %2) unnamed_addr #2 {
  %4 = getelementptr inbounds nuw i8, ptr %1, i64 20
  %5 = load i32, ptr %4, align 4, !tbaa !38
  %6 = getelementptr inbounds nuw i8, ptr %2, i64 20
  %7 = load i32, ptr %6, align 4, !tbaa !38
  %8 = sub nsw i32 %5, %7
  %.not.i = icmp eq i32 %8, 0
  br i1 %.not.i, label %9, label %31

9:                                                ; preds = %3
  %10 = sext i32 %7 to i64
  %.idx.i = shl nsw i64 %10, 2
  %.add.i = add nsw i64 %.idx.i, 24
  %11 = getelementptr inbounds nuw i8, ptr %2, i64 24
  %12 = getelementptr inbounds i32, ptr %11, i64 %10
  br label %13

13:                                               ; preds = %20, %9
  %.018.i = phi ptr [ %12, %9 ], [ %15, %20 ]
  %.017.idx.i = phi i64 [ %.add.i, %9 ], [ %.017.add.i, %20 ]
  %.017.add.i = add nsw i64 %.017.idx.i, -4
  %.ptr.i = getelementptr inbounds i8, ptr %1, i64 %.017.add.i
  %14 = load i32, ptr %.ptr.i, align 4, !tbaa !37
  %15 = getelementptr inbounds i8, ptr %.018.i, i64 -4
  %16 = load i32, ptr %15, align 4, !tbaa !37
  %.not23.i = icmp eq i32 %14, %16
  br i1 %.not23.i, label %20, label %17

17:                                               ; preds = %13
  %18 = icmp ult i32 %14, %16
  %19 = select i1 %18, i32 -1, i32 1
  br label %31

20:                                               ; preds = %13
  %.not24.i = icmp sgt i64 %.017.idx.i, 28
  br i1 %.not24.i, label %13, label %cmp.exit

cmp.exit:                                         ; preds = %20
  %21 = load ptr, ptr %0, align 8, !tbaa !14
  %.not.i59 = icmp eq ptr %21, null
  br i1 %.not.i59, label %24, label %22

22:                                               ; preds = %cmp.exit
  %23 = load ptr, ptr %21, align 8, !tbaa !10
  store ptr %23, ptr %0, align 8, !tbaa !14
  br label %Balloc.exit

24:                                               ; preds = %cmp.exit
  %25 = tail call ptr @jv_mem_alloc(i64 noundef 32) #11
  %26 = getelementptr inbounds nuw i8, ptr %25, i64 8
  store i32 0, ptr %26, align 8, !tbaa !13
  %27 = getelementptr inbounds nuw i8, ptr %25, i64 12
  store i32 1, ptr %27, align 4, !tbaa !35
  br label %Balloc.exit

Balloc.exit:                                      ; preds = %22, %24
  %.0.i60 = phi ptr [ %21, %22 ], [ %25, %24 ]
  %28 = getelementptr inbounds nuw i8, ptr %.0.i60, i64 20
  %29 = getelementptr inbounds nuw i8, ptr %.0.i60, i64 16
  store i32 0, ptr %29, align 8, !tbaa !36
  store i32 1, ptr %28, align 4, !tbaa !38
  %30 = getelementptr inbounds nuw i8, ptr %.0.i60, i64 24
  store i32 0, ptr %30, align 8, !tbaa !37
  br label %92

31:                                               ; preds = %17, %3
  %.0.i.ph = phi i32 [ %8, %3 ], [ %19, %17 ]
  %32 = icmp slt i32 %.0.i.ph, 0
  %.0.i.ph.lobit = lshr i32 %.0.i.ph, 31
  %.57 = select i1 %32, ptr %1, ptr %2
  %.58 = select i1 %32, ptr %2, ptr %1
  %33 = getelementptr inbounds nuw i8, ptr %.58, i64 8
  %34 = load i32, ptr %33, align 8, !tbaa !13
  %35 = icmp slt i32 %34, 8
  br i1 %35, label %36, label %42

36:                                               ; preds = %31
  %37 = sext i32 %34 to i64
  %38 = getelementptr inbounds [8 x ptr], ptr %0, i64 0, i64 %37
  %39 = load ptr, ptr %38, align 8, !tbaa !14
  %.not.i62 = icmp eq ptr %39, null
  br i1 %.not.i62, label %42, label %40

40:                                               ; preds = %36
  %41 = load ptr, ptr %39, align 8, !tbaa !10
  store ptr %41, ptr %38, align 8, !tbaa !14
  br label %Balloc.exit63

42:                                               ; preds = %36, %31
  %43 = shl nuw i32 1, %34
  %44 = add nsw i32 %43, -1
  %45 = zext nneg i32 %44 to i64
  %46 = shl nuw nsw i64 %45, 2
  %47 = add nuw nsw i64 %46, 32
  %48 = tail call ptr @jv_mem_alloc(i64 noundef %47) #11
  %49 = getelementptr inbounds nuw i8, ptr %48, i64 8
  store i32 %34, ptr %49, align 8, !tbaa !13
  %50 = getelementptr inbounds nuw i8, ptr %48, i64 12
  store i32 %43, ptr %50, align 4, !tbaa !35
  br label %Balloc.exit63

Balloc.exit63:                                    ; preds = %40, %42
  %.0.i61 = phi ptr [ %39, %40 ], [ %48, %42 ]
  %51 = getelementptr inbounds nuw i8, ptr %.0.i61, i64 20
  store i32 0, ptr %51, align 4, !tbaa !38
  %52 = getelementptr inbounds nuw i8, ptr %.0.i61, i64 16
  store i32 %.0.i.ph.lobit, ptr %52, align 8, !tbaa !36
  %53 = getelementptr inbounds nuw i8, ptr %.58, i64 20
  %54 = load i32, ptr %53, align 4, !tbaa !38
  %55 = getelementptr inbounds nuw i8, ptr %.58, i64 24
  %56 = sext i32 %54 to i64
  %57 = getelementptr inbounds nuw i8, ptr %.57, i64 20
  %58 = load i32, ptr %57, align 4, !tbaa !38
  %59 = getelementptr inbounds nuw i8, ptr %.57, i64 24
  %60 = sext i32 %58 to i64
  %61 = getelementptr inbounds i32, ptr %59, i64 %60
  %62 = getelementptr inbounds nuw i8, ptr %.0.i61, i64 24
  br label %63

63:                                               ; preds = %63, %Balloc.exit63
  %.050 = phi ptr [ %55, %Balloc.exit63 ], [ %64, %63 ]
  %.048 = phi ptr [ %59, %Balloc.exit63 ], [ %67, %63 ]
  %.045 = phi ptr [ %62, %Balloc.exit63 ], [ %75, %63 ]
  %.0 = phi i64 [ 0, %Balloc.exit63 ], [ %73, %63 ]
  %64 = getelementptr inbounds nuw i8, ptr %.050, i64 4
  %65 = load i32, ptr %.050, align 4, !tbaa !37
  %66 = zext i32 %65 to i64
  %67 = getelementptr inbounds nuw i8, ptr %.048, i64 4
  %68 = load i32, ptr %.048, align 4, !tbaa !37
  %69 = zext i32 %68 to i64
  %70 = add nuw nsw i64 %.0, %69
  %71 = sub nsw i64 %66, %70
  %72 = lshr i64 %71, 32
  %73 = and i64 %72, 1
  %74 = trunc i64 %71 to i32
  %75 = getelementptr inbounds nuw i8, ptr %.045, i64 4
  store i32 %74, ptr %.045, align 4, !tbaa !37
  %76 = icmp ult ptr %67, %61
  br i1 %76, label %63, label %.preheader68, !llvm.loop !51

.preheader68:                                     ; preds = %63
  %77 = getelementptr inbounds i32, ptr %55, i64 %56
  %78 = icmp ult ptr %64, %77
  br i1 %78, label %.lr.ph, label %.preheader.preheader

.lr.ph:                                           ; preds = %.preheader68, %.lr.ph
  %.177 = phi i64 [ %84, %.lr.ph ], [ %73, %.preheader68 ]
  %.14676 = phi ptr [ %86, %.lr.ph ], [ %75, %.preheader68 ]
  %.15175 = phi ptr [ %79, %.lr.ph ], [ %64, %.preheader68 ]
  %79 = getelementptr inbounds nuw i8, ptr %.15175, i64 4
  %80 = load i32, ptr %.15175, align 4, !tbaa !37
  %81 = zext i32 %80 to i64
  %82 = sub nsw i64 %81, %.177
  %83 = lshr i64 %82, 32
  %84 = and i64 %83, 1
  %85 = trunc i64 %82 to i32
  %86 = getelementptr inbounds nuw i8, ptr %.14676, i64 4
  store i32 %85, ptr %.14676, align 4, !tbaa !37
  %87 = icmp ult ptr %79, %77
  br i1 %87, label %.lr.ph, label %.preheader.preheader, !llvm.loop !52

.preheader.preheader:                             ; preds = %.lr.ph, %.preheader68
  %.2.ph = phi ptr [ %75, %.preheader68 ], [ %86, %.lr.ph ]
  br label %.preheader

.preheader:                                       ; preds = %.preheader.preheader, %.preheader
  %.053 = phi i32 [ %90, %.preheader ], [ %54, %.preheader.preheader ]
  %.2 = phi ptr [ %88, %.preheader ], [ %.2.ph, %.preheader.preheader ]
  %88 = getelementptr inbounds i8, ptr %.2, i64 -4
  %89 = load i32, ptr %88, align 4, !tbaa !37
  %.not56 = icmp eq i32 %89, 0
  %90 = add nsw i32 %.053, -1
  br i1 %.not56, label %.preheader, label %91, !llvm.loop !53

91:                                               ; preds = %.preheader
  store i32 %.053, ptr %51, align 4, !tbaa !38
  br label %92

92:                                               ; preds = %91, %Balloc.exit
  %.047 = phi ptr [ %.0.i61, %91 ], [ %.0.i60, %Balloc.exit ]
  ret ptr %.047
}